target datalayout = "e-m:e-p270:32:32-p271:32:32-p272:64:64-i64:64-i128:128-f80:128-n8:16:32:64-S128"
target triple = "x86_64-pc-linux-gnu"

%struct.VP8Encoder = type { ptr, ptr, %struct.VP8EncFilterHeader, %struct.VP8EncSegmentHeader, i32, i32, i32, i32, i32, %struct.VP8BitWriter, [8 x %struct.VP8BitWriter], %struct.VP8TBuffer, i32, i32, ptr, i32, %struct.WebPWorker, [4 x %struct.VP8SegmentInfo], i32, i32, i32, i32, i32, i32, i32, i32, %struct.VP8EncProba, [4 x i64], i64, i32, [3 x [4 x i32]], [3 x i32], i32, i32, i32, i32, i32, i32, i32, ptr, ptr, ptr, ptr, ptr, ptr, ptr }
%struct.VP8EncFilterHeader = type { i32, i32, i32, i32 }
%struct.VP8EncSegmentHeader = type { i32, i32, i32 }
%struct.VP8BitWriter = type { i32, i32, i32, i32, ptr, i64, i64, i32 }
%struct.VP8TBuffer = type { ptr, ptr, ptr, i32, i32, i32 }
%struct.WebPWorker = type { ptr, i32, ptr, ptr, ptr, i32 }
%struct.VP8SegmentInfo = type { %struct.VP8Matrix, %struct.VP8Matrix, %struct.VP8Matrix, i32, i32, i32, i32, i32, i32, i32, i32, i32, i32, i32, i32, i32, i32, i32, i64 }
%struct.VP8Matrix = type { [16 x i16], [16 x i16], [16 x i32], [16 x i32], [16 x i16] }
%struct.VP8EncProba = type { [3 x i8], i8, [4 x [8 x [3 x [11 x i8]]]], [4 x [8 x [3 x [11 x i32]]]], [4 x [8 x [3 x [68 x i16]]]], [4 x [16 x [3 x ptr]]], i32, i32, i32 }
%struct.WebPWorkerInterface = type { ptr, ptr, ptr, ptr, ptr, ptr }

; Function Attrs: nounwind uwtable
define hidden i32 @VP8EncFinishAlpha(ptr noundef %0) #0 {
  %2 = alloca i32, align 4
  %3 = alloca ptr, align 8
  %4 = alloca ptr, align 8
  %5 = alloca i32, align 4
  store ptr %0, ptr %3, align 8, !tbaa !3
  %6 = load ptr, ptr %3, align 8, !tbaa !3
  %7 = getelementptr inbounds nuw %struct.VP8Encoder, ptr %6, i32 0, i32 13
  %8 = load i32, ptr %7, align 4, !tbaa !26
  %9 = icmp ne i32 %8, 0
  br i1 %9, label %10, label %30

10:                                               ; preds = %1
  %11 = load ptr, ptr %3, align 8, !tbaa !3
  %12 = getelementptr inbounds nuw %struct.VP8Encoder, ptr %11, i32 0, i32 36
  %13 = load i32, ptr %12, align 8, !tbaa !29
  %14 = icmp sgt i32 %13, 0
  br i1 %14, label %15, label %29

15:                                               ; preds = %10
  call void @llvm.lifetime.start.p0(i64 8, ptr %4) #6
  %16 = load ptr, ptr %3, align 8, !tbaa !3
  %17 = getelementptr inbounds nuw %struct.VP8Encoder, ptr %16, i32 0, i32 16
  store ptr %17, ptr %4, align 8, !tbaa !30
  %18 = call ptr @WebPGetWorkerInterface()
  %19 = getelementptr inbounds nuw %struct.WebPWorkerInterface, ptr %18, i32 0, i32 2
  %20 = load ptr, ptr %19, align 8, !tbaa !49
  %21 = load ptr, ptr %4, align 8, !tbaa !30
  %22 = call i32 %20(ptr noundef %21)
  %23 = icmp ne i32 %22, 0
  br i1 %23, label %25, label %24

24:                                               ; preds = %15
  store i32 0, ptr %2, align 4
  store i32 1, ptr %5, align 4
  br label %26

25:                                               ; preds = %15
  store i32 0, ptr %5, align 4
  br label %26

26:                                               ; preds = %25, %24
  call void @llvm.lifetime.end.p0(i64 8, ptr %4) #6
  %27 = load i32, ptr %5, align 4
  switch i32 %27, label %43 [
    i32 0, label %28
    i32 1, label %41
  ]

28:                                               ; preds = %26
  br label %29

29:                                               ; preds = %28, %10
  br label %30

30:                                               ; preds = %29, %1
  %31 = load ptr, ptr %3, align 8, !tbaa !3
  %32 = getelementptr inbounds nuw %struct.VP8Encoder, ptr %31, i32 0, i32 1
  %33 = load ptr, ptr %32, align 8, !tbaa !8
  %34 = load ptr, ptr %3, align 8, !tbaa !3
  %35 = getelementptr inbounds nuw %struct.VP8Encoder, ptr %34, i32 0, i32 12
  %36 = load i32, ptr %35, align 8, !tbaa !50
  %37 = add nsw i32 %36, 20
  %38 = load ptr, ptr %3, align 8, !tbaa !3
  %39 = getelementptr inbounds nuw %struct.VP8Encoder, ptr %38, i32 0, i32 12
  %40 = call i32 @WebPReportProgress(ptr noundef %33, i32 noundef %37, ptr noundef %39)
  store i32 %40, ptr %2, align 4
  br label %41

41:                                               ; preds = %30, %26
  %42 = load i32, ptr %2, align 4
  ret i32 %42

43:                                               ; preds = %26
  unreachable
}