; Function Attrs: nounwind uwtable
define hidden i32 @VP8EncFinishAlpha(ptr noundef %0) local_unnamed_addr #0 {
  %2 = getelementptr inbounds nuw i8, ptr %0, i64 540
  %3 = load i32, ptr %2, align 4, !tbaa !24
  %.not = icmp eq i32 %3, 0
  br i1 %.not, label %14, label %4

4:                                                ; preds = %1
  %5 = getelementptr inbounds nuw i8, ptr %0, i64 23632
  %6 = load i32, ptr %5, align 8, !tbaa !27
  %7 = icmp sgt i32 %6, 0
  br i1 %7, label %8, label %14

8:                                                ; preds = %4
  %9 = getelementptr inbounds nuw i8, ptr %0, i64 560
  %10 = tail call ptr @WebPGetWorkerInterface() #5
  %11 = getelementptr inbounds nuw i8, ptr %10, i64 16
  %12 = load ptr, ptr %11, align 8, !tbaa !83
  %13 = tail call i32 %12(ptr noundef nonnull %9) #5
  %.not9.not = icmp eq i32 %13, 0
  br i1 %.not9.not, label %21, label %14

14:                                               ; preds = %8, %4, %1
  %15 = getelementptr inbounds nuw i8, ptr %0, i64 8
  %16 = load ptr, ptr %15, align 8, !tbaa !3
  %17 = getelementptr inbounds nuw i8, ptr %0, i64 536
  %18 = load i32, ptr %17, align 8, !tbaa !84
  %19 = add nsw i32 %18, 20
  %20 = tail call i32 @WebPReportProgress(ptr noundef %16, i32 noundef %19, ptr noundef nonnull %17) #5
  br label %21

21:                                               ; preds = %8, %14
  %.1 = phi i32 [ 0, %8 ], [ %20, %14 ]
  ret i32 %.1
}